; Function Attrs: inlinehint mustprogress optsize uwtable
define internal noundef ptr @"_ZZN8nanobind6detail11func_createILb0ELb1EZL26nanobind_init_test_stl_extRNS_7module_EE4$_16St5tupleIJP7MovableEEJETpTnmJEJNS_5scopeENS_4nameEEEEP7_objectOT1_PFT2_DpT3_ESt16integer_sequenceImJXspT4_EEEDpRKT5_ENUlPvPSC_PhNS_9rv_policyEPNS0_12cleanup_listEE_8__invokeESQ_SR_SS_ST_SV_"(ptr readnone captures(none) %0, ptr readnone captures(none) %1, ptr readnone captures(none) %2, i32 noundef %3, ptr noundef %4) #11 align 2 personality ptr @__gxx_personality_v0 {
  %6 = alloca %"class.std::tuple.346", align 8
  call void @llvm.lifetime.start.p0(i64 8, ptr nonnull %6) #28
  tail call void @llvm.experimental.noalias.scope.decl(metadata !212)
  %7 = tail call noalias noundef nonnull dereferenceable(4) ptr @_Znwm(i64 noundef 4) #33, !noalias !212
  store i32 5, ptr %7, align 4, !tbaa !129, !noalias !212
  %8 = load i32, ptr @_ZL19default_constructed, align 4, !tbaa !128, !noalias !212
  %9 = add nsw i32 %8, 1
  store i32 %9, ptr @_ZL19default_constructed, align 4, !tbaa !128, !noalias !212
  store ptr %7, ptr %6, align 8, !tbaa !215, !alias.scope !217
  %10 = call ptr @_ZN8nanobind6detail11type_casterISt5tupleIJP7MovableEEiE13from_cpp_implIS5_JLm0EEEENS_6handleEOT_NS_9rv_policyEPNS0_12cleanup_listESt16integer_sequenceImJXspT0_EEE(ptr noundef nonnull align 8 dereferenceable(8) %6, i32 noundef %3, ptr noundef %4) #27
  call void @llvm.lifetime.end.p0(i64 8, ptr nonnull %6) #28
  ret ptr %10
}